; Function Attrs: mustprogress uwtable
define internal fastcc void @_ZN32pxrInternal_v0_24__pxrReserved__L12_ExtrapolateEdN9__gnu_cxx17__normal_iteratorIPKNS_10TsKeyFrameESt6vectorIS2_SaIS2_EEEERKNS_8TsSplineENS_6TsSideE(ptr dead_on_unwind noalias writable align 8 %0, double noundef %1, ptr %2, ptr noundef nonnull align 8 dereferenceable(16) %3, i32 noundef %4) unnamed_addr #3 personality ptr @__gxx_personality_v0 {
  %6 = alloca %"class.pxrInternal_v0_24__pxrReserved__::VtValue", align 8
  %7 = alloca %"class.pxrInternal_v0_24__pxrReserved__::VtValue", align 8
  call fastcc void @_ZN32pxrInternal_v0_24__pxrReserved__L22_GetExtrapolationSlopeEN9__gnu_cxx17__normal_iteratorIPKNS_10TsKeyFrameESt6vectorIS2_SaIS2_EEEERKNS_8TsSplineENS_6TsSideE(ptr dead_on_unwind noalias nonnull writable align 8 %6, ptr %2, ptr noundef nonnull align 8 dereferenceable(16) %3, i32 noundef %4)
  %8 = icmp eq i32 %4, 0
  br i1 %8, label %9, label %10

9:                                                ; preds = %5
  invoke void @_ZNK32pxrInternal_v0_24__pxrReserved__10TsKeyFrame12GetLeftValueEv(ptr dead_on_unwind nonnull writable sret(%"class.pxrInternal_v0_24__pxrReserved__::VtValue") align 8 %7, ptr noundef nonnull align 8 dereferenceable(72) %2)
          to label %11 unwind label %47

10:                                               ; preds = %5
  invoke void @_ZNK32pxrInternal_v0_24__pxrReserved__10TsKeyFrame8GetValueEv(ptr dead_on_unwind nonnull writable sret(%"class.pxrInternal_v0_24__pxrReserved__::VtValue") align 8 %7, ptr noundef nonnull align 8 dereferenceable(72) %2)
          to label %11 unwind label %47

11:                                               ; preds = %9, %10
  %12 = getelementptr inbounds nuw i8, ptr %2, i64 8
  %13 = load double, ptr %12, align 8
  %14 = invoke noundef ptr @_ZN32pxrInternal_v0_24__pxrReserved__18Ts_GetKeyFrameDataERKNS_10TsKeyFrameE(ptr noundef nonnull align 8 dereferenceable(72) %2)
          to label %15 unwind label %49

15:                                               ; preds = %11
  %16 = fsub double %1, %13
  %17 = load ptr, ptr %14, align 8
  %18 = getelementptr inbounds i8, ptr %17, i64 176
  %19 = load ptr, ptr %18, align 8
  invoke void %19(ptr dead_on_unwind writable sret(%"class.pxrInternal_v0_24__pxrReserved__::VtValue") align 8 %0, ptr noundef nonnull align 8 dereferenceable(16) %14, ptr noundef nonnull align 8 dereferenceable(16) %7, double noundef %16, ptr noundef nonnull align 8 dereferenceable(16) %6)
          to label %20 unwind label %49

20:                                               ; preds = %15
  %21 = getelementptr inbounds nuw i8, ptr %7, i64 8
  %22 = load ptr, ptr %21, align 8
  %23 = ptrtoint ptr %22 to i64
  %.not.i.i = icmp eq ptr %22, null
  %24 = and i64 %23, 3
  %25 = icmp eq i64 %24, 3
  %or.cond.i.i = or i1 %.not.i.i, %25
  br i1 %or.cond.i.i, label %_ZN32pxrInternal_v0_24__pxrReserved__7VtValueD2Ev.exit, label %26

26:                                               ; preds = %20
  %27 = and i64 %23, -8
  %28 = inttoptr i64 %27 to ptr
  %29 = getelementptr inbounds nuw i8, ptr %28, i64 32
  %30 = load ptr, ptr %29, align 8
  invoke void %30(ptr noundef nonnull align 8 dereferenceable(8) %7)
          to label %_ZN32pxrInternal_v0_24__pxrReserved__7VtValueD2Ev.exit unwind label %31

31:                                               ; preds = %26
  %32 = landingpad { ptr, i32 }
          catch ptr null
  %33 = extractvalue { ptr, i32 } %32, 0
  call void @__clang_call_terminate(ptr %33) #20
  unreachable

_ZN32pxrInternal_v0_24__pxrReserved__7VtValueD2Ev.exit: ; preds = %20, %26
  store ptr null, ptr %21, align 8
  %34 = getelementptr inbounds nuw i8, ptr %6, i64 8
  %35 = load ptr, ptr %34, align 8
  %36 = ptrtoint ptr %35 to i64
  %.not.i.i12 = icmp eq ptr %35, null
  %37 = and i64 %36, 3
  %38 = icmp eq i64 %37, 3
  %or.cond.i.i13 = or i1 %.not.i.i12, %38
  br i1 %or.cond.i.i13, label %_ZN32pxrInternal_v0_24__pxrReserved__7VtValueD2Ev.exit14, label %39

39:                                               ; preds = %_ZN32pxrInternal_v0_24__pxrReserved__7VtValueD2Ev.exit
  %40 = and i64 %36, -8
  %41 = inttoptr i64 %40 to ptr
  %42 = getelementptr inbounds nuw i8, ptr %41, i64 32
  %43 = load ptr, ptr %42, align 8
  invoke void %43(ptr noundef nonnull align 8 dereferenceable(8) %6)
          to label %_ZN32pxrInternal_v0_24__pxrReserved__7VtValueD2Ev.exit14 unwind label %44

44:                                               ; preds = %39
  %45 = landingpad { ptr, i32 }
          catch ptr null
  %46 = extractvalue { ptr, i32 } %45, 0
  call void @__clang_call_terminate(ptr %46) #20
  unreachable

_ZN32pxrInternal_v0_24__pxrReserved__7VtValueD2Ev.exit14: ; preds = %_ZN32pxrInternal_v0_24__pxrReserved__7VtValueD2Ev.exit, %39
  ret void

47:                                               ; preds = %10, %9
  %48 = landingpad { ptr, i32 }
          cleanup
  br label %51

49:                                               ; preds = %15, %11
  %50 = landingpad { ptr, i32 }
          cleanup
  call void @_ZN32pxrInternal_v0_24__pxrReserved__7VtValueD2Ev(ptr noundef nonnull align 8 dereferenceable(16) %7) #19
  br label %51

51:                                               ; preds = %49, %47
  %.pn = phi { ptr, i32 } [ %50, %49 ], [ %48, %47 ]
  call void @_ZN32pxrInternal_v0_24__pxrReserved__7VtValueD2Ev(ptr noundef nonnull align 8 dereferenceable(16) %6) #19
  resume { ptr, i32 } %.pn
}